target datalayout = "e-m:e-p270:32:32-p271:32:32-p272:64:64-i64:64-i128:128-f80:128-n8:16:32:64-S128"
target triple = "x86_64-pc-linux-gnu"

%struct.pointf_s = type { double, double }
%struct.boxf = type { %struct.pointf_s, %struct.pointf_s }

@.str.8 = private unnamed_addr constant [89 x i8] c"segment [(%.5g, %.5g),(%.5g,%.5g)] does not intersect box ll=(%.5g,%.5g),ur=(%.5g,%.5g)\0A\00", align 1

; Function Attrs: nounwind uwtable
define internal { double, double } @boxIntersectf(double %0, double %1, double %2, double %3, ptr noundef %4) #0 {
  %6 = alloca %struct.pointf_s, align 8
  %7 = alloca %struct.pointf_s, align 8
  %8 = alloca %struct.pointf_s, align 8
  %9 = alloca ptr, align 8
  %10 = alloca double, align 8
  %11 = alloca double, align 8
  %12 = alloca double, align 8
  %13 = alloca double, align 8
  %14 = alloca %struct.pointf_s, align 8
  %15 = alloca %struct.pointf_s, align 8
  %16 = alloca i32, align 4
  %17 = getelementptr inbounds nuw { double, double }, ptr %7, i32 0, i32 0
  store double %0, ptr %17, align 8
  %18 = getelementptr inbounds nuw { double, double }, ptr %7, i32 0, i32 1
  store double %1, ptr %18, align 8
  %19 = getelementptr inbounds nuw { double, double }, ptr %8, i32 0, i32 0
  store double %2, ptr %19, align 8
  %20 = getelementptr inbounds nuw { double, double }, ptr %8, i32 0, i32 1
  store double %3, ptr %20, align 8
  store ptr %4, ptr %9, align 8, !tbaa !52
  call void @llvm.lifetime.start.p0(i64 8, ptr %10) #11
  %21 = getelementptr inbounds nuw %struct.pointf_s, ptr %7, i32 0, i32 0
  %22 = load double, ptr %21, align 8, !tbaa !69
  store double %22, ptr %10, align 8, !tbaa !55
  call void @llvm.lifetime.start.p0(i64 8, ptr %11) #11
  %23 = getelementptr inbounds nuw %struct.pointf_s, ptr %7, i32 0, i32 1
  %24 = load double, ptr %23, align 8, !tbaa !72
  store double %24, ptr %11, align 8, !tbaa !55
  call void @llvm.lifetime.start.p0(i64 8, ptr %12) #11
  %25 = getelementptr inbounds nuw %struct.pointf_s, ptr %8, i32 0, i32 0
  %26 = load double, ptr %25, align 8, !tbaa !69
  store double %26, ptr %12, align 8, !tbaa !55
  call void @llvm.lifetime.start.p0(i64 8, ptr %13) #11
  %27 = getelementptr inbounds nuw %struct.pointf_s, ptr %8, i32 0, i32 1
  %28 = load double, ptr %27, align 8, !tbaa !72
  store double %28, ptr %13, align 8, !tbaa !55
  call void @llvm.lifetime.start.p0(i64 16, ptr %14) #11
  call void @llvm.lifetime.start.p0(i64 16, ptr %15) #11
  %29 = load ptr, ptr %9, align 8, !tbaa !52
  %30 = getelementptr inbounds nuw %struct.boxf, ptr %29, i32 0, i32 0
  call void @llvm.memcpy.p0.p0.i64(ptr align 8 %14, ptr align 8 %30, i64 16, i1 false), !tbaa.struct !54
  %31 = load ptr, ptr %9, align 8, !tbaa !52
  %32 = getelementptr inbounds nuw %struct.boxf, ptr %31, i32 0, i32 1
  call void @llvm.memcpy.p0.p0.i64(ptr align 8 %15, ptr align 8 %32, i64 16, i1 false), !tbaa.struct !54
  %33 = getelementptr inbounds nuw %struct.pointf_s, ptr %8, i32 0, i32 0
  %34 = load double, ptr %33, align 8, !tbaa !69
  %35 = getelementptr inbounds nuw %struct.pointf_s, ptr %14, i32 0, i32 0
  %36 = load double, ptr %35, align 8, !tbaa !69
  %37 = fcmp olt double %34, %36
  br i1 %37, label %38, label %73

38:                                               ; preds = %5
  %39 = getelementptr inbounds nuw %struct.pointf_s, ptr %14, i32 0, i32 0
  %40 = load double, ptr %39, align 8, !tbaa !69
  %41 = getelementptr inbounds nuw %struct.pointf_s, ptr %6, i32 0, i32 0
  store double %40, ptr %41, align 8, !tbaa !69
  %42 = getelementptr inbounds nuw %struct.pointf_s, ptr %7, i32 0, i32 1
  %43 = load double, ptr %42, align 8, !tbaa !72
  %44 = getelementptr inbounds nuw %struct.pointf_s, ptr %6, i32 0, i32 0
  %45 = load double, ptr %44, align 8, !tbaa !69
  %46 = load double, ptr %10, align 8, !tbaa !55
  %47 = fsub double %45, %46
  %48 = load double, ptr %11, align 8, !tbaa !55
  %49 = load double, ptr %13, align 8, !tbaa !55
  %50 = fsub double %48, %49
  %51 = fmul double %47, %50
  %52 = load double, ptr %10, align 8, !tbaa !55
  %53 = load double, ptr %12, align 8, !tbaa !55
  %54 = fsub double %52, %53
  %55 = fdiv double %51, %54
  %56 = fptosi double %55 to i32
  %57 = sitofp i32 %56 to double
  %58 = fadd double %43, %57
  %59 = getelementptr inbounds nuw %struct.pointf_s, ptr %6, i32 0, i32 1
  store double %58, ptr %59, align 8, !tbaa !72
  %60 = getelementptr inbounds nuw %struct.pointf_s, ptr %6, i32 0, i32 1
  %61 = load double, ptr %60, align 8, !tbaa !72
  %62 = getelementptr inbounds nuw %struct.pointf_s, ptr %14, i32 0, i32 1
  %63 = load double, ptr %62, align 8, !tbaa !72
  %64 = fcmp oge double %61, %63
  br i1 %64, label %65, label %72

65:                                               ; preds = %38
  %66 = getelementptr inbounds nuw %struct.pointf_s, ptr %6, i32 0, i32 1
  %67 = load double, ptr %66, align 8, !tbaa !72
  %68 = getelementptr inbounds nuw %struct.pointf_s, ptr %15, i32 0, i32 1
  %69 = load double, ptr %68, align 8, !tbaa !72
  %70 = fcmp ole double %67, %69
  br i1 %70, label %71, label %72

71:                                               ; preds = %65
  store i32 1, ptr %16, align 4
  br label %213

72:                                               ; preds = %65, %38
  br label %73

73:                                               ; preds = %72, %5
  %74 = getelementptr inbounds nuw %struct.pointf_s, ptr %8, i32 0, i32 0
  %75 = load double, ptr %74, align 8, !tbaa !69
  %76 = getelementptr inbounds nuw %struct.pointf_s, ptr %15, i32 0, i32 0
  %77 = load double, ptr %76, align 8, !tbaa !69
  %78 = fcmp ogt double %75, %77
  br i1 %78, label %79, label %114

79:                                               ; preds = %73
  %80 = getelementptr inbounds nuw %struct.pointf_s, ptr %15, i32 0, i32 0
  %81 = load double, ptr %80, align 8, !tbaa !69
  %82 = getelementptr inbounds nuw %struct.pointf_s, ptr %6, i32 0, i32 0
  store double %81, ptr %82, align 8, !tbaa !69
  %83 = getelementptr inbounds nuw %struct.pointf_s, ptr %7, i32 0, i32 1
  %84 = load double, ptr %83, align 8, !tbaa !72
  %85 = getelementptr inbounds nuw %struct.pointf_s, ptr %6, i32 0, i32 0
  %86 = load double, ptr %85, align 8, !tbaa !69
  %87 = load double, ptr %10, align 8, !tbaa !55
  %88 = fsub double %86, %87
  %89 = load double, ptr %11, align 8, !tbaa !55
  %90 = load double, ptr %13, align 8, !tbaa !55
  %91 = fsub double %89, %90
  %92 = fmul double %88, %91
  %93 = load double, ptr %10, align 8, !tbaa !55
  %94 = load double, ptr %12, align 8, !tbaa !55
  %95 = fsub double %93, %94
  %96 = fdiv double %92, %95
  %97 = fptosi double %96 to i32
  %98 = sitofp i32 %97 to double
  %99 = fadd double %84, %98
  %100 = getelementptr inbounds nuw %struct.pointf_s, ptr %6, i32 0, i32 1
  store double %99, ptr %100, align 8, !tbaa !72
  %101 = getelementptr inbounds nuw %struct.pointf_s, ptr %6, i32 0, i32 1
  %102 = load double, ptr %101, align 8, !tbaa !72
  %103 = getelementptr inbounds nuw %struct.pointf_s, ptr %14, i32 0, i32 1
  %104 = load double, ptr %103, align 8, !tbaa !72
  %105 = fcmp oge double %102, %104
  br i1 %105, label %106, label %113

106:                                              ; preds = %79
  %107 = getelementptr inbounds nuw %struct.pointf_s, ptr %6, i32 0, i32 1
  %108 = load double, ptr %107, align 8, !tbaa !72
  %109 = getelementptr inbounds nuw %struct.pointf_s, ptr %15, i32 0, i32 1
  %110 = load double, ptr %109, align 8, !tbaa !72
  %111 = fcmp ole double %108, %110
  br i1 %111, label %112, label %113

112:                                              ; preds = %106
  store i32 1, ptr %16, align 4
  br label %213

113:                                              ; preds = %106, %79
  br label %114

114:                                              ; preds = %113, %73
  %115 = getelementptr inbounds nuw %struct.pointf_s, ptr %8, i32 0, i32 1
  %116 = load double, ptr %115, align 8, !tbaa !72
  %117 = getelementptr inbounds nuw %struct.pointf_s, ptr %14, i32 0, i32 1
  %118 = load double, ptr %117, align 8, !tbaa !72
  %119 = fcmp olt double %116, %118
  br i1 %119, label %120, label %155

120:                                              ; preds = %114
  %121 = getelementptr inbounds nuw %struct.pointf_s, ptr %14, i32 0, i32 1
  %122 = load double, ptr %121, align 8, !tbaa !72
  %123 = getelementptr inbounds nuw %struct.pointf_s, ptr %6, i32 0, i32 1
  store double %122, ptr %123, align 8, !tbaa !72
  %124 = getelementptr inbounds nuw %struct.pointf_s, ptr %7, i32 0, i32 0
  %125 = load double, ptr %124, align 8, !tbaa !69
  %126 = getelementptr inbounds nuw %struct.pointf_s, ptr %6, i32 0, i32 1
  %127 = load double, ptr %126, align 8, !tbaa !72
  %128 = load double, ptr %11, align 8, !tbaa !55
  %129 = fsub double %127, %128
  %130 = load double, ptr %10, align 8, !tbaa !55
  %131 = load double, ptr %12, align 8, !tbaa !55
  %132 = fsub double %130, %131
  %133 = fmul double %129, %132
  %134 = load double, ptr %11, align 8, !tbaa !55
  %135 = load double, ptr %13, align 8, !tbaa !55
  %136 = fsub double %134, %135
  %137 = fdiv double %133, %136
  %138 = fptosi double %137 to i32
  %139 = sitofp i32 %138 to double
  %140 = fadd double %125, %139
  %141 = getelementptr inbounds nuw %struct.pointf_s, ptr %6, i32 0, i32 0
  store double %140, ptr %141, align 8, !tbaa !69
  %142 = getelementptr inbounds nuw %struct.pointf_s, ptr %6, i32 0, i32 0
  %143 = load double, ptr %142, align 8, !tbaa !69
  %144 = getelementptr inbounds nuw %struct.pointf_s, ptr %14, i32 0, i32 0
  %145 = load double, ptr %144, align 8, !tbaa !69
  %146 = fcmp oge double %143, %145
  br i1 %146, label %147, label %154

147:                                              ; preds = %120
  %148 = getelementptr inbounds nuw %struct.pointf_s, ptr %6, i32 0, i32 0
  %149 = load double, ptr %148, align 8, !tbaa !69
  %150 = getelementptr inbounds nuw %struct.pointf_s, ptr %15, i32 0, i32 0
  %151 = load double, ptr %150, align 8, !tbaa !69
  %152 = fcmp ole double %149, %151
  br i1 %152, label %153, label %154

153:                                              ; preds = %147
  store i32 1, ptr %16, align 4
  br label %213

154:                                              ; preds = %147, %120
  br label %155

155:                                              ; preds = %154, %114
  %156 = getelementptr inbounds nuw %struct.pointf_s, ptr %8, i32 0, i32 1
  %157 = load double, ptr %156, align 8, !tbaa !72
  %158 = getelementptr inbounds nuw %struct.pointf_s, ptr %15, i32 0, i32 1
  %159 = load double, ptr %158, align 8, !tbaa !72
  %160 = fcmp ogt double %157, %159
  br i1 %160, label %161, label %196

161:                                              ; preds = %155
  %162 = getelementptr inbounds nuw %struct.pointf_s, ptr %15, i32 0, i32 1
  %163 = load double, ptr %162, align 8, !tbaa !72
  %164 = getelementptr inbounds nuw %struct.pointf_s, ptr %6, i32 0, i32 1
  store double %163, ptr %164, align 8, !tbaa !72
  %165 = getelementptr inbounds nuw %struct.pointf_s, ptr %7, i32 0, i32 0
  %166 = load double, ptr %165, align 8, !tbaa !69
  %167 = getelementptr inbounds nuw %struct.pointf_s, ptr %6, i32 0, i32 1
  %168 = load double, ptr %167, align 8, !tbaa !72
  %169 = load double, ptr %11, align 8, !tbaa !55
  %170 = fsub double %168, %169
  %171 = load double, ptr %10, align 8, !tbaa !55
  %172 = load double, ptr %12, align 8, !tbaa !55
  %173 = fsub double %171, %172
  %174 = fmul double %170, %173
  %175 = load double, ptr %11, align 8, !tbaa !55
  %176 = load double, ptr %13, align 8, !tbaa !55
  %177 = fsub double %175, %176
  %178 = fdiv double %174, %177
  %179 = fptosi double %178 to i32
  %180 = sitofp i32 %179 to double
  %181 = fadd double %166, %180
  %182 = getelementptr inbounds nuw %struct.pointf_s, ptr %6, i32 0, i32 0
  store double %181, ptr %182, align 8, !tbaa !69
  %183 = getelementptr inbounds nuw %struct.pointf_s, ptr %6, i32 0, i32 0
  %184 = load double, ptr %183, align 8, !tbaa !69
  %185 = getelementptr inbounds nuw %struct.pointf_s, ptr %14, i32 0, i32 0
  %186 = load double, ptr %185, align 8, !tbaa !69
  %187 = fcmp oge double %184, %186
  br i1 %187, label %188, label %195

188:                                              ; preds = %161
  %189 = getelementptr inbounds nuw %struct.pointf_s, ptr %6, i32 0, i32 0
  %190 = load double, ptr %189, align 8, !tbaa !69
  %191 = getelementptr inbounds nuw %struct.pointf_s, ptr %15, i32 0, i32 0
  %192 = load double, ptr %191, align 8, !tbaa !69
  %193 = fcmp ole double %190, %192
  br i1 %193, label %194, label %195

194:                                              ; preds = %188
  store i32 1, ptr %16, align 4
  br label %213

195:                                              ; preds = %188, %161
  br label %196

196:                                              ; preds = %195, %155
  %197 = getelementptr inbounds nuw %struct.pointf_s, ptr %7, i32 0, i32 0
  %198 = load double, ptr %197, align 8, !tbaa !69
  %199 = getelementptr inbounds nuw %struct.pointf_s, ptr %7, i32 0, i32 1
  %200 = load double, ptr %199, align 8, !tbaa !72
  %201 = getelementptr inbounds nuw %struct.pointf_s, ptr %8, i32 0, i32 0
  %202 = load double, ptr %201, align 8, !tbaa !69
  %203 = getelementptr inbounds nuw %struct.pointf_s, ptr %8, i32 0, i32 1
  %204 = load double, ptr %203, align 8, !tbaa !72
  %205 = getelementptr inbounds nuw %struct.pointf_s, ptr %14, i32 0, i32 0
  %206 = load double, ptr %205, align 8, !tbaa !69
  %207 = getelementptr inbounds nuw %struct.pointf_s, ptr %14, i32 0, i32 1
  %208 = load double, ptr %207, align 8, !tbaa !72
  %209 = getelementptr inbounds nuw %struct.pointf_s, ptr %15, i32 0, i32 0
  %210 = load double, ptr %209, align 8, !tbaa !69
  %211 = getelementptr inbounds nuw %struct.pointf_s, ptr %15, i32 0, i32 1
  %212 = load double, ptr %211, align 8, !tbaa !72
  call void (ptr, ...) @agerrorf(ptr noundef @.str.8, double noundef %198, double noundef %200, double noundef %202, double noundef %204, double noundef %206, double noundef %208, double noundef %210, double noundef %212)
  store i32 1, ptr %16, align 4
  br label %213

213:                                              ; preds = %196, %194, %153, %112, %71
  call void @llvm.lifetime.end.p0(i64 16, ptr %15) #11
  call void @llvm.lifetime.end.p0(i64 16, ptr %14) #11
  call void @llvm.lifetime.end.p0(i64 8, ptr %13) #11
  call void @llvm.lifetime.end.p0(i64 8, ptr %12) #11
  call void @llvm.lifetime.end.p0(i64 8, ptr %11) #11
  call void @llvm.lifetime.end.p0(i64 8, ptr %10) #11
  %214 = load { double, double }, ptr %6, align 8
  ret { double, double } %214
}