; Function Attrs: nounwind uwtable
define internal fastcc { double, double } @boxIntersectf(double %0, double %1, double %2, double %3, ptr noundef readonly captures(none) %4) unnamed_addr #0 {
  %.sroa.09.0.copyload = load double, ptr %4, align 8, !tbaa !46
  %.sroa.814.0..sroa_idx = getelementptr inbounds nuw i8, ptr %4, i64 8
  %.sroa.814.0.copyload = load double, ptr %.sroa.814.0..sroa_idx, align 8, !tbaa !46
  %6 = getelementptr inbounds nuw i8, ptr %4, i64 16
  %.sroa.0.0.copyload = load double, ptr %6, align 8, !tbaa !46
  %.sroa.8.0..sroa_idx = getelementptr inbounds nuw i8, ptr %4, i64 24
  %.sroa.8.0.copyload = load double, ptr %.sroa.8.0..sroa_idx, align 8, !tbaa !46
  %7 = fcmp olt double %2, %.sroa.09.0.copyload
  br i1 %7, label %8, label %19

8:                                                ; preds = %5
  %9 = fsub double %.sroa.09.0.copyload, %0
  %10 = fsub double %1, %3
  %11 = fmul double %10, %9
  %12 = fsub double %0, %2
  %13 = fdiv double %11, %12
  %14 = fptosi double %13 to i32
  %15 = sitofp i32 %14 to double
  %16 = fadd double %1, %15
  %17 = fcmp ult double %16, %.sroa.814.0.copyload
  %18 = fcmp ugt double %16, %.sroa.8.0.copyload
  %or.cond = select i1 %17, i1 true, i1 %18
  br i1 %or.cond, label %19, label %59

19:                                               ; preds = %8, %5
  %.sroa.11.0 = phi double [ %16, %8 ], [ undef, %5 ]
  %20 = fcmp ogt double %2, %.sroa.0.0.copyload
  br i1 %20, label %21, label %32

21:                                               ; preds = %19
  %22 = fsub double %.sroa.0.0.copyload, %0
  %23 = fsub double %1, %3
  %24 = fmul double %23, %22
  %25 = fsub double %0, %2
  %26 = fdiv double %24, %25
  %27 = fptosi double %26 to i32
  %28 = sitofp i32 %27 to double
  %29 = fadd double %1, %28
  %30 = fcmp ult double %29, %.sroa.814.0.copyload
  %31 = fcmp ugt double %29, %.sroa.8.0.copyload
  %or.cond76 = select i1 %30, i1 true, i1 %31
  br i1 %or.cond76, label %32, label %59

32:                                               ; preds = %21, %19
  %.sroa.055.2 = phi double [ %.sroa.0.0.copyload, %21 ], [ %.sroa.09.0.copyload, %19 ]
  %.sroa.11.2 = phi double [ %29, %21 ], [ %.sroa.11.0, %19 ]
  %33 = fcmp olt double %3, %.sroa.814.0.copyload
  br i1 %33, label %34, label %45

34:                                               ; preds = %32
  %35 = fsub double %.sroa.814.0.copyload, %1
  %36 = fsub double %0, %2
  %37 = fmul double %36, %35
  %38 = fsub double %1, %3
  %39 = fdiv double %37, %38
  %40 = fptosi double %39 to i32
  %41 = sitofp i32 %40 to double
  %42 = fadd double %0, %41
  %43 = fcmp ult double %42, %.sroa.09.0.copyload
  %44 = fcmp ugt double %42, %.sroa.0.0.copyload
  %or.cond77 = select i1 %43, i1 true, i1 %44
  br i1 %or.cond77, label %45, label %59

45:                                               ; preds = %34, %32
  %.sroa.055.3 = phi double [ %42, %34 ], [ %.sroa.055.2, %32 ]
  %.sroa.11.3 = phi double [ %.sroa.814.0.copyload, %34 ], [ %.sroa.11.2, %32 ]
  %46 = fcmp ogt double %3, %.sroa.8.0.copyload
  br i1 %46, label %47, label %58

47:                                               ; preds = %45
  %48 = fsub double %.sroa.8.0.copyload, %1
  %49 = fsub double %0, %2
  %50 = fmul double %49, %48
  %51 = fsub double %1, %3
  %52 = fdiv double %50, %51
  %53 = fptosi double %52 to i32
  %54 = sitofp i32 %53 to double
  %55 = fadd double %0, %54
  %56 = fcmp ult double %55, %.sroa.09.0.copyload
  %57 = fcmp ugt double %55, %.sroa.0.0.copyload
  %or.cond78 = select i1 %56, i1 true, i1 %57
  br i1 %or.cond78, label %58, label %59

58:                                               ; preds = %47, %45
  %.sroa.055.4 = phi double [ %55, %47 ], [ %.sroa.055.3, %45 ]
  %.sroa.11.4 = phi double [ %.sroa.8.0.copyload, %47 ], [ %.sroa.11.3, %45 ]
  tail call void (ptr, ...) @agerrorf(ptr noundef nonnull @.str.8, double noundef %0, double noundef %1, double noundef %2, double noundef %3, double noundef %.sroa.09.0.copyload, double noundef %.sroa.814.0.copyload, double noundef %.sroa.0.0.copyload, double noundef %.sroa.8.0.copyload) #11
  br label %59

59:                                               ; preds = %47, %34, %21, %8, %58
  %.sroa.055.1 = phi double [ %.sroa.055.4, %58 ], [ %.sroa.09.0.copyload, %8 ], [ %.sroa.0.0.copyload, %21 ], [ %42, %34 ], [ %55, %47 ]
  %.sroa.11.1 = phi double [ %.sroa.11.4, %58 ], [ %16, %8 ], [ %29, %21 ], [ %.sroa.814.0.copyload, %34 ], [ %.sroa.8.0.copyload, %47 ]
  %.fca.0.insert = insertvalue { double, double } poison, double %.sroa.055.1, 0
  %.fca.1.insert = insertvalue { double, double } %.fca.0.insert, double %.sroa.11.1, 1
  ret { double, double } %.fca.1.insert
}